#include <math.h>
#include <stdio.h>
#include <stdlib.h>
#include <string.h>


int main(int argc, char* argv[])
{
	int n,i,j,a,zf[100000];
	struct student
	{
		int name;
		int yw;
		int sx;

	}stu[100000];
	scanf("%d",&n);
	for(i=0;i<n;i++){
		scanf("%d%d%d",&stu[i].name,&stu[i].yw,&stu[i].sx);
		zf[i]=stu[i].yw+stu[i].sx;
	}
	for(j=1;j<4;j++){
		for(i=0;i<n-j;i++){
			if(zf[i]>=zf[i+1]){
				a=zf[i];
				zf[i]=zf[i+1];
				zf[i+1]=a;
				a=stu[i].name;
				stu[i].name=stu[i+1].name;
				stu[i+1].name=a;
			}
		}
	}
	for(i=n-1;i>=n-3;i--){
	printf("%d %d\n",stu[i].name,zf[i]);
	}
	return 0;
}

